target datalayout = "e-m:e-p270:32:32-p271:32:32-p272:64:64-i64:64-i128:128-f80:128-n8:16:32:64-S128"
target triple = "x86_64-pc-linux-gnu"

%struct.cmsysProcess_s = type { ptr, i32, [3 x i32], [3 x i32], i32, [1024 x i8], ptr, i32, double, ptr, i32, i32, i32, i32, i32, %struct.kwsysProcessTime_s, %struct.kwsysProcessTime_s, i32, i32, %struct.fd_set, i32, i32, i32, [1025 x i8], ptr, ptr, ptr, ptr, ptr, i32, i32, i32, [2 x i32], [2 x i32], [2 x i32], i32, ptr }
%struct.kwsysProcessTime_s = type { i64, i64 }
%struct.fd_set = type { [16 x i64] }

@.str = private unnamed_addr constant [52 x i8] c"Process management structure could not be allocated\00", align 1
@.str.1 = private unnamed_addr constant [8 x i8] c"Success\00", align 1

; Function Attrs: nounwind uwtable
define dso_local ptr @cmsysProcess_GetErrorString(ptr noundef %0) #0 {
  %2 = alloca ptr, align 8
  %3 = alloca ptr, align 8
  store ptr %0, ptr %3, align 8, !tbaa !4
  %4 = load ptr, ptr %3, align 8, !tbaa !4
  %5 = icmp ne ptr %4, null
  br i1 %5, label %7, label %6

6:                                                ; preds = %1
  store ptr @.str, ptr %2, align 8
  br label %17

7:                                                ; preds = %1
  %8 = load ptr, ptr %3, align 8, !tbaa !4
  %9 = getelementptr inbounds nuw %struct.cmsysProcess_s, ptr %8, i32 0, i32 21
  %10 = load volatile i32, ptr %9, align 4, !tbaa !21
  %11 = icmp eq i32 %10, 1
  br i1 %11, label %12, label %16

12:                                               ; preds = %7
  %13 = load ptr, ptr %3, align 8, !tbaa !4
  %14 = getelementptr inbounds nuw %struct.cmsysProcess_s, ptr %13, i32 0, i32 23
  %15 = getelementptr inbounds [1025 x i8], ptr %14, i64 0, i64 0
  store ptr %15, ptr %2, align 8
  br label %17

16:                                               ; preds = %7
  store ptr @.str.1, ptr %2, align 8
  br label %17

17:                                               ; preds = %16, %12, %6
  %18 = load ptr, ptr %2, align 8
  ret ptr %18
}