; Function Attrs: mustprogress nofree norecurse nounwind willreturn memory(argmem: readwrite, inaccessiblemem: readwrite) uwtable
define dso_local nonnull ptr @cmsysProcess_GetErrorString(ptr noundef %0) local_unnamed_addr #11 {
  %.not = icmp eq ptr %0, null
  br i1 %.not, label %7, label %2

2:                                                ; preds = %1
  %3 = getelementptr inbounds nuw i8, ptr %0, i64 1292
  %4 = load volatile i32, ptr %3, align 4, !tbaa !18
  %5 = icmp eq i32 %4, 1
  %6 = getelementptr inbounds nuw i8, ptr %0, i64 1300
  %spec.select = select i1 %5, ptr %6, ptr @.str.1
  br label %7

7:                                                ; preds = %2, %1
  %.0 = phi ptr [ @.str, %1 ], [ %spec.select, %2 ]
  ret ptr %.0
}